target datalayout = "e-m:e-p270:32:32-p271:32:32-p272:64:64-i64:64-i128:128-f80:128-n8:16:32:64-S128"
target triple = "x86_64-pc-linux-gnu"

%"class.google::protobuf::FileDescriptorProto" = type { %"class.google::protobuf::Message", %"class.google::protobuf::internal::HasBits", %"class.google::protobuf::internal::CachedSize", %"class.google::protobuf::RepeatedPtrField", %"class.google::protobuf::RepeatedPtrField.11", %"class.google::protobuf::RepeatedPtrField.12", %"class.google::protobuf::RepeatedPtrField.13", %"class.google::protobuf::RepeatedPtrField.14", %"class.google::protobuf::RepeatedField", %"class.google::protobuf::RepeatedField", %"struct.google::protobuf::internal::ArenaStringPtr", %"struct.google::protobuf::internal::ArenaStringPtr", %"struct.google::protobuf::internal::ArenaStringPtr", ptr, ptr }
%"class.google::protobuf::Message" = type { %"class.google::protobuf::MessageLite" }
%"class.google::protobuf::MessageLite" = type { ptr, %"class.google::protobuf::internal::InternalMetadata" }
%"class.google::protobuf::internal::InternalMetadata" = type { i64 }
%"class.google::protobuf::internal::HasBits" = type { [1 x i32] }
%"class.google::protobuf::internal::CachedSize" = type { %"struct.std::atomic" }
%"struct.std::atomic" = type { %"struct.std::__atomic_base" }
%"struct.std::__atomic_base" = type { i32 }
%"class.google::protobuf::RepeatedPtrField" = type { %"class.google::protobuf::internal::RepeatedPtrFieldBase" }
%"class.google::protobuf::internal::RepeatedPtrFieldBase" = type { ptr, i32, i32, ptr }
%"class.google::protobuf::RepeatedPtrField.11" = type { %"class.google::protobuf::internal::RepeatedPtrFieldBase" }
%"class.google::protobuf::RepeatedPtrField.12" = type { %"class.google::protobuf::internal::RepeatedPtrFieldBase" }
%"class.google::protobuf::RepeatedPtrField.13" = type { %"class.google::protobuf::internal::RepeatedPtrFieldBase" }
%"class.google::protobuf::RepeatedPtrField.14" = type { %"class.google::protobuf::internal::RepeatedPtrFieldBase" }
%"class.google::protobuf::RepeatedField" = type { i32, i32, ptr }
%"struct.google::protobuf::internal::ArenaStringPtr" = type { %"class.google::protobuf::internal::TaggedPtr" }
%"class.google::protobuf::internal::TaggedPtr" = type { ptr }
%"class.google::protobuf::DescriptorDatabase" = type { ptr }
%"class.google::protobuf::MergedDescriptorDatabase" = type { %"class.google::protobuf::DescriptorDatabase", %"class.std::vector.110" }
%"class.std::vector.110" = type { %"struct.std::_Vector_base.111" }
%"struct.std::_Vector_base.111" = type { %"struct.std::_Vector_base<google::protobuf::DescriptorDatabase *, std::allocator<google::protobuf::DescriptorDatabase *>>::_Vector_impl" }
%"struct.std::_Vector_base<google::protobuf::DescriptorDatabase *, std::allocator<google::protobuf::DescriptorDatabase *>>::_Vector_impl" = type { %"struct.std::_Vector_base<google::protobuf::DescriptorDatabase *, std::allocator<google::protobuf::DescriptorDatabase *>>::_Vector_impl_data" }
%"struct.std::_Vector_base<google::protobuf::DescriptorDatabase *, std::allocator<google::protobuf::DescriptorDatabase *>>::_Vector_impl_data" = type { ptr, ptr, ptr }

; Function Attrs: mustprogress nounwind uwtable
define linkonce_odr hidden noundef i64 @_ZNK6google8protobuf8internal9TaggedPtrINSt7__cxx1112basic_stringIcSt11char_traitsIcESaIcEEEE6as_intEv(ptr noundef nonnull align 8 dereferenceable(8) %0) #4 comdat align 2 {
  %2 = alloca ptr, align 8
  store ptr %0, ptr %2, align 8, !tbaa !330
  %3 = load ptr, ptr %2, align 8
  %4 = getelementptr inbounds nuw %"class.google::protobuf::internal::TaggedPtr", ptr %3, i32 0, i32 0
  %5 = load ptr, ptr %4, align 8, !tbaa !332
  %6 = ptrtoint ptr %5 to i64
  ret i64 %6
}

; Function Attrs: mustprogress uwtable
define linkonce_odr hidden noundef ptr @_ZNK6google8protobuf8internal9TaggedPtrINSt7__cxx1112basic_stringIcSt11char_traitsIcESaIcEEEE3GetEv(ptr noundef nonnull align 8 dereferenceable(8) %0) #6 comdat align 2 {
  %2 = alloca ptr, align 8
  store ptr %0, ptr %2, align 8, !tbaa !330
  %3 = load ptr, ptr %2, align 8
  %4 = call noundef i64 @_ZNK6google8protobuf8internal9TaggedPtrINSt7__cxx1112basic_stringIcSt11char_traitsIcESaIcEEEE6as_intEv(ptr noundef nonnull align 8 dereferenceable(8) %3)
  %5 = and i64 %4, -2
  %6 = inttoptr i64 %5 to ptr
  ret ptr %6
}

; Function Attrs: alwaysinline mustprogress uwtable
define linkonce_odr hidden noundef nonnull align 8 dereferenceable(32) ptr @_ZNK6google8protobuf8internal14ArenaStringPtr3GetB5cxx11Ev(ptr noundef nonnull align 8 dereferenceable(8) %0) #13 comdat align 2 {
  %2 = alloca ptr, align 8
  store ptr %0, ptr %2, align 8, !tbaa !328
  %3 = load ptr, ptr %2, align 8
  %4 = getelementptr inbounds nuw %"struct.google::protobuf::internal::ArenaStringPtr", ptr %3, i32 0, i32 0
  %5 = call noundef ptr @_ZNK6google8protobuf8internal9TaggedPtrINSt7__cxx1112basic_stringIcSt11char_traitsIcESaIcEEEE3GetEv(ptr noundef nonnull align 8 dereferenceable(8) %4)
  ret ptr %5
}

; Function Attrs: inlinehint mustprogress uwtable
define linkonce_odr hidden noundef nonnull align 8 dereferenceable(32) ptr @_ZNK6google8protobuf19FileDescriptorProto14_internal_nameB5cxx11Ev(ptr noundef nonnull align 8 dereferenceable(216) %0) #11 comdat align 2 {
  %2 = alloca ptr, align 8
  store ptr %0, ptr %2, align 8, !tbaa !24
  %3 = load ptr, ptr %2, align 8
  %4 = getelementptr inbounds nuw %"class.google::protobuf::FileDescriptorProto", ptr %3, i32 0, i32 10
  %5 = call noundef nonnull align 8 dereferenceable(32) ptr @_ZNK6google8protobuf8internal14ArenaStringPtr3GetB5cxx11Ev(ptr noundef nonnull align 8 dereferenceable(8) %4)
  ret ptr %5
}

; Function Attrs: inlinehint mustprogress uwtable
define linkonce_odr hidden noundef nonnull align 8 dereferenceable(32) ptr @_ZNK6google8protobuf19FileDescriptorProto4nameB5cxx11Ev(ptr noundef nonnull align 8 dereferenceable(216) %0) #11 comdat align 2 {
  %2 = alloca ptr, align 8
  store ptr %0, ptr %2, align 8, !tbaa !24
  %3 = load ptr, ptr %2, align 8
  %4 = call noundef nonnull align 8 dereferenceable(32) ptr @_ZNK6google8protobuf19FileDescriptorProto14_internal_nameB5cxx11Ev(ptr noundef nonnull align 8 dereferenceable(216) %3)
  ret ptr %4
}

; Function Attrs: inlinehint mustprogress uwtable
define linkonce_odr hidden void @_ZN6google8protobuf19FileDescriptorProtoC2Ev(ptr noundef nonnull align 8 dereferenceable(216) %0) unnamed_addr #11 comdat align 2 {
  %2 = alloca ptr, align 8
  store ptr %0, ptr %2, align 8, !tbaa !24
  %3 = load ptr, ptr %2, align 8
  call void @_ZN6google8protobuf19FileDescriptorProtoC2EPNS0_5ArenaEb(ptr noundef nonnull align 8 dereferenceable(216) %3, ptr noundef null, i1 noundef zeroext false)
  ret void
}

; Function Attrs: mustprogress nounwind uwtable
define linkonce_odr hidden noundef nonnull align 8 dereferenceable(8) ptr @_ZNSt6vectorIPN6google8protobuf18DescriptorDatabaseESaIS3_EEixEm(ptr noundef nonnull align 8 dereferenceable(24) %0, i64 noundef %1) #4 comdat align 2 {
  %3 = alloca ptr, align 8
  %4 = alloca i64, align 8
  store ptr %0, ptr %3, align 8, !tbaa !240
  store i64 %1, ptr %4, align 8, !tbaa !95
  %5 = load ptr, ptr %3, align 8
  %6 = getelementptr inbounds nuw %"struct.std::_Vector_base.111", ptr %5, i32 0, i32 0
  %7 = getelementptr inbounds nuw %"struct.std::_Vector_base<google::protobuf::DescriptorDatabase *, std::allocator<google::protobuf::DescriptorDatabase *>>::_Vector_impl_data", ptr %6, i32 0, i32 0
  %8 = load ptr, ptr %7, align 8, !tbaa !247
  %9 = load i64, ptr %4, align 8, !tbaa !95
  %10 = getelementptr inbounds nuw ptr, ptr %8, i64 %9
  ret ptr %10
}

; Function Attrs: mustprogress nounwind uwtable
define linkonce_odr hidden noundef i64 @_ZNKSt6vectorIPN6google8protobuf18DescriptorDatabaseESaIS3_EE4sizeEv(ptr noundef nonnull align 8 dereferenceable(24) %0) #4 comdat align 2 {
  %2 = alloca ptr, align 8
  store ptr %0, ptr %2, align 8, !tbaa !240
  %3 = load ptr, ptr %2, align 8
  %4 = getelementptr inbounds nuw %"struct.std::_Vector_base.111", ptr %3, i32 0, i32 0
  %5 = getelementptr inbounds nuw %"struct.std::_Vector_base<google::protobuf::DescriptorDatabase *, std::allocator<google::protobuf::DescriptorDatabase *>>::_Vector_impl_data", ptr %4, i32 0, i32 1
  %6 = load ptr, ptr %5, align 8, !tbaa !244
  %7 = getelementptr inbounds nuw %"struct.std::_Vector_base.111", ptr %3, i32 0, i32 0
  %8 = getelementptr inbounds nuw %"struct.std::_Vector_base<google::protobuf::DescriptorDatabase *, std::allocator<google::protobuf::DescriptorDatabase *>>::_Vector_impl_data", ptr %7, i32 0, i32 0
  %9 = load ptr, ptr %8, align 8, !tbaa !247
  %10 = ptrtoint ptr %6 to i64
  %11 = ptrtoint ptr %9 to i64
  %12 = sub i64 %10, %11
  %13 = sdiv exact i64 %12, 8
  ret i64 %13
}

; Function Attrs: mustprogress uwtable
define hidden noundef zeroext i1 @_ZN6google8protobuf24MergedDescriptorDatabase27FindFileContainingExtensionERKNSt7__cxx1112basic_stringIcSt11char_traitsIcESaIcEEEiPNS0_19FileDescriptorProtoE(ptr noundef nonnull align 8 dereferenceable(32) %0, ptr noundef nonnull align 8 dereferenceable(32) %1, i32 noundef %2, ptr noundef %3) unnamed_addr #6 align 2 personality ptr @__gxx_personality_v0 {
  %5 = alloca i1, align 1
  %6 = alloca ptr, align 8
  %7 = alloca ptr, align 8
  %8 = alloca i32, align 4
  %9 = alloca ptr, align 8
  %10 = alloca i64, align 8
  %11 = alloca i32, align 4
  %12 = alloca %"class.google::protobuf::FileDescriptorProto", align 8
  %13 = alloca i64, align 8
  %14 = alloca ptr, align 8
  %15 = alloca i32, align 4
  store ptr %0, ptr %6, align 8, !tbaa !238
  store ptr %1, ptr %7, align 8, !tbaa !12
  store i32 %2, ptr %8, align 4, !tbaa !30
  store ptr %3, ptr %9, align 8, !tbaa !24
  %16 = load ptr, ptr %6, align 8
  call void @llvm.lifetime.start.p0(i64 8, ptr %10) #3
  store i64 0, ptr %10, align 8, !tbaa !95
  br label %17

17:                                               ; preds = %68, %4
  %18 = load i64, ptr %10, align 8, !tbaa !95
  %19 = getelementptr inbounds nuw %"class.google::protobuf::MergedDescriptorDatabase", ptr %16, i32 0, i32 1
  %20 = call noundef i64 @_ZNKSt6vectorIPN6google8protobuf18DescriptorDatabaseESaIS3_EE4sizeEv(ptr noundef nonnull align 8 dereferenceable(24) %19) #3
  %21 = icmp ult i64 %18, %20
  br i1 %21, label %23, label %22

22:                                               ; preds = %17
  store i32 2, ptr %11, align 4
  br label %71

23:                                               ; preds = %17
  %24 = getelementptr inbounds nuw %"class.google::protobuf::MergedDescriptorDatabase", ptr %16, i32 0, i32 1
  %25 = load i64, ptr %10, align 8, !tbaa !95
  %26 = call noundef nonnull align 8 dereferenceable(8) ptr @_ZNSt6vectorIPN6google8protobuf18DescriptorDatabaseESaIS3_EEixEm(ptr noundef nonnull align 8 dereferenceable(24) %24, i64 noundef %25) #3
  %27 = load ptr, ptr %26, align 8, !tbaa !3
  %28 = load ptr, ptr %7, align 8, !tbaa !12
  %29 = load i32, ptr %8, align 4, !tbaa !30
  %30 = load ptr, ptr %9, align 8, !tbaa !24
  %31 = load ptr, ptr %27, align 8, !tbaa !10
  %32 = getelementptr inbounds ptr, ptr %31, i64 4
  %33 = load ptr, ptr %32, align 8
  %34 = call noundef zeroext i1 %33(ptr noundef nonnull align 8 dereferenceable(8) %27, ptr noundef nonnull align 8 dereferenceable(32) %28, i32 noundef %29, ptr noundef %30)
  br i1 %34, label %35, label %67

35:                                               ; preds = %23
  call void @llvm.lifetime.start.p0(i64 216, ptr %12) #3
  call void @_ZN6google8protobuf19FileDescriptorProtoC2Ev(ptr noundef nonnull align 8 dereferenceable(216) %12)
  call void @llvm.lifetime.start.p0(i64 8, ptr %13) #3
  store i64 0, ptr %13, align 8, !tbaa !95
  br label %36

36:                                               ; preds = %60, %35
  %37 = load i64, ptr %13, align 8, !tbaa !95
  %38 = load i64, ptr %10, align 8, !tbaa !95
  %39 = icmp ult i64 %37, %38
  br i1 %39, label %41, label %40

40:                                               ; preds = %36
  store i32 5, ptr %11, align 4
  br label %63

41:                                               ; preds = %36
  %42 = getelementptr inbounds nuw %"class.google::protobuf::MergedDescriptorDatabase", ptr %16, i32 0, i32 1
  %43 = load i64, ptr %13, align 8, !tbaa !95
  %44 = call noundef nonnull align 8 dereferenceable(8) ptr @_ZNSt6vectorIPN6google8protobuf18DescriptorDatabaseESaIS3_EEixEm(ptr noundef nonnull align 8 dereferenceable(24) %42, i64 noundef %43) #3
  %45 = load ptr, ptr %44, align 8, !tbaa !3
  %46 = load ptr, ptr %9, align 8, !tbaa !24
  %47 = invoke noundef nonnull align 8 dereferenceable(32) ptr @_ZNK6google8protobuf19FileDescriptorProto4nameB5cxx11Ev(ptr noundef nonnull align 8 dereferenceable(216) %46)
          to label %48 unwind label %55

48:                                               ; preds = %41
  %49 = load ptr, ptr %45, align 8, !tbaa !10
  %50 = getelementptr inbounds ptr, ptr %49, i64 2
  %51 = load ptr, ptr %50, align 8
  %52 = invoke noundef zeroext i1 %51(ptr noundef nonnull align 8 dereferenceable(8) %45, ptr noundef nonnull align 8 dereferenceable(32) %47, ptr noundef %12)
          to label %53 unwind label %55

53:                                               ; preds = %48
  br i1 %52, label %54, label %59

54:                                               ; preds = %53
  store i1 false, ptr %5, align 1
  store i32 1, ptr %11, align 4
  br label %63

55:                                               ; preds = %48, %41
  %56 = landingpad { ptr, i32 }
          cleanup
  %57 = extractvalue { ptr, i32 } %56, 0
  store ptr %57, ptr %14, align 8
  %58 = extractvalue { ptr, i32 } %56, 1
  store i32 %58, ptr %15, align 4
  call void @llvm.lifetime.end.p0(i64 8, ptr %13) #3
  call void @_ZN6google8protobuf19FileDescriptorProtoD1Ev(ptr noundef nonnull align 8 dereferenceable(216) %12) #3
  call void @llvm.lifetime.end.p0(i64 216, ptr %12) #3
  call void @llvm.lifetime.end.p0(i64 8, ptr %10) #3
  br label %76

59:                                               ; preds = %53
  br label %60

60:                                               ; preds = %59
  %61 = load i64, ptr %13, align 8, !tbaa !95
  %62 = add i64 %61, 1
  store i64 %62, ptr %13, align 8, !tbaa !95
  br label %36, !llvm.loop !254

63:                                               ; preds = %54, %40
  call void @llvm.lifetime.end.p0(i64 8, ptr %13) #3
  %64 = load i32, ptr %11, align 4
  switch i32 %64, label %66 [
    i32 5, label %65
  ]

65:                                               ; preds = %63
  store i1 true, ptr %5, align 1
  store i32 1, ptr %11, align 4
  br label %66

66:                                               ; preds = %65, %63
  call void @_ZN6google8protobuf19FileDescriptorProtoD1Ev(ptr noundef nonnull align 8 dereferenceable(216) %12) #3
  call void @llvm.lifetime.end.p0(i64 216, ptr %12) #3
  br label %71

67:                                               ; preds = %23
  br label %68

68:                                               ; preds = %67
  %69 = load i64, ptr %10, align 8, !tbaa !95
  %70 = add i64 %69, 1
  store i64 %70, ptr %10, align 8, !tbaa !95
  br label %17, !llvm.loop !255

71:                                               ; preds = %66, %22
  call void @llvm.lifetime.end.p0(i64 8, ptr %10) #3
  %72 = load i32, ptr %11, align 4
  switch i32 %72, label %81 [
    i32 2, label %73
    i32 1, label %74
  ]

73:                                               ; preds = %71
  store i1 false, ptr %5, align 1
  br label %74

74:                                               ; preds = %73, %71
  %75 = load i1, ptr %5, align 1
  ret i1 %75

76:                                               ; preds = %55
  %77 = load ptr, ptr %14, align 8
  %78 = load i32, ptr %15, align 4
  %79 = insertvalue { ptr, i32 } poison, ptr %77, 0
  %80 = insertvalue { ptr, i32 } %79, i32 %78, 1
  resume { ptr, i32 } %80

81:                                               ; preds = %71
  unreachable
}