; Function Attrs: mustprogress uwtable
define hidden noundef zeroext i1 @_ZN6google8protobuf24MergedDescriptorDatabase27FindFileContainingExtensionERKNSt7__cxx1112basic_stringIcSt11char_traitsIcESaIcEEEiPNS0_19FileDescriptorProtoE(ptr noundef nonnull readonly align 8 captures(none) dereferenceable(32) %0, ptr noundef nonnull align 8 dereferenceable(32) %1, i32 noundef %2, ptr noundef %3) unnamed_addr #6 align 2 personality ptr @__gxx_personality_v0 {
  %5 = alloca %"class.google::protobuf::FileDescriptorProto", align 8
  %6 = getelementptr inbounds nuw i8, ptr %0, i64 8
  %7 = getelementptr inbounds nuw i8, ptr %0, i64 16
  %8 = load ptr, ptr %7, align 8, !tbaa !264
  %9 = load ptr, ptr %6, align 8, !tbaa !261
  %.not2228.not = icmp eq ptr %8, %9
  br i1 %.not2228.not, label %.loopexit, label %.lr.ph

.lr.ph:                                           ; preds = %4, %35
  %10 = phi ptr [ %38, %35 ], [ %9, %4 ]
  %.01629 = phi i64 [ %36, %35 ], [ 0, %4 ]
  %11 = getelementptr inbounds nuw ptr, ptr %10, i64 %.01629
  %12 = load ptr, ptr %11, align 8, !tbaa !259
  %13 = load ptr, ptr %12, align 8, !tbaa !3
  %14 = getelementptr inbounds nuw i8, ptr %13, i64 32
  %15 = load ptr, ptr %14, align 8
  %16 = tail call noundef zeroext i1 %15(ptr noundef nonnull align 8 dereferenceable(8) %12, ptr noundef nonnull align 8 dereferenceable(32) %1, i32 noundef %2, ptr noundef %3)
  br i1 %16, label %17, label %35

17:                                               ; preds = %.lr.ph
  call void @llvm.lifetime.start.p0(i64 216, ptr nonnull %5) #26
  call void @_ZN6google8protobuf19FileDescriptorProtoC2EPNS0_5ArenaEb(ptr noundef nonnull align 8 dereferenceable(216) %5, ptr noundef null, i1 noundef zeroext false)
  %.not31 = icmp eq i64 %.01629, 0
  br i1 %.not31, label %._crit_edge, label %.lr.ph34

.lr.ph34:                                         ; preds = %17
  %18 = getelementptr inbounds nuw i8, ptr %3, i64 176
  br label %19

19:                                               ; preds = %31, %.lr.ph34
  %.01732 = phi i64 [ 0, %.lr.ph34 ], [ %32, %31 ]
  %20 = load ptr, ptr %6, align 8, !tbaa !261
  %21 = getelementptr inbounds nuw ptr, ptr %20, i64 %.01732
  %22 = load ptr, ptr %21, align 8, !tbaa !259
  %23 = load ptr, ptr %18, align 8, !tbaa !20
  %24 = ptrtoint ptr %23 to i64
  %25 = and i64 %24, -2
  %26 = inttoptr i64 %25 to ptr
  %27 = load ptr, ptr %22, align 8, !tbaa !3
  %28 = getelementptr inbounds nuw i8, ptr %27, i64 16
  %29 = load ptr, ptr %28, align 8
  %30 = invoke noundef zeroext i1 %29(ptr noundef nonnull align 8 dereferenceable(8) %22, ptr noundef nonnull align 8 dereferenceable(32) %26, ptr noundef nonnull %5)
          to label %31 unwind label %33

31:                                               ; preds = %19
  %32 = add nuw i64 %.01732, 1
  %exitcond.not = icmp eq i64 %32, %.01629
  %or.cond = select i1 %30, i1 true, i1 %exitcond.not
  br i1 %or.cond, label %._crit_edge.loopexit, label %19, !llvm.loop !269

33:                                               ; preds = %19
  %34 = landingpad { ptr, i32 }
          cleanup
  call void @_ZN6google8protobuf19FileDescriptorProtoD1Ev(ptr noundef nonnull align 8 dereferenceable(216) %5) #26
  call void @llvm.lifetime.end.p0(i64 216, ptr nonnull %5) #26
  resume { ptr, i32 } %34

._crit_edge.loopexit:                             ; preds = %31
  %.not.lcssa.ph = xor i1 %30, true
  br label %._crit_edge

._crit_edge:                                      ; preds = %._crit_edge.loopexit, %17
  %.not.lcssa = phi i1 [ true, %17 ], [ %.not.lcssa.ph, %._crit_edge.loopexit ]
  call void @_ZN6google8protobuf19FileDescriptorProtoD1Ev(ptr noundef nonnull align 8 dereferenceable(216) %5) #26
  call void @llvm.lifetime.end.p0(i64 216, ptr nonnull %5) #26
  br label %.loopexit

35:                                               ; preds = %.lr.ph
  %36 = add nuw i64 %.01629, 1
  %37 = load ptr, ptr %7, align 8, !tbaa !264
  %38 = load ptr, ptr %6, align 8, !tbaa !261
  %39 = ptrtoint ptr %37 to i64
  %40 = ptrtoint ptr %38 to i64
  %41 = sub i64 %39, %40
  %42 = ashr exact i64 %41, 3
  %.not22 = icmp ult i64 %36, %42
  br i1 %.not22, label %.lr.ph, label %.loopexit, !llvm.loop !270

.loopexit:                                        ; preds = %35, %4, %._crit_edge
  %.not2225 = phi i1 [ true, %._crit_edge ], [ false, %4 ], [ false, %35 ]
  %.0 = phi i1 [ %.not.lcssa, %._crit_edge ], [ undef, %4 ], [ undef, %35 ]
  %spec.select21 = and i1 %.not2225, %.0
  ret i1 %spec.select21
}